target datalayout = "e-m:e-p270:32:32-p271:32:32-p272:64:64-i64:64-i128:128-f80:128-n8:16:32:64-S128"
target triple = "x86_64-pc-linux-gnu"

%"class.(anonymous namespace)::CaptureDiagnosticConsumer" = type <{ %"class.clang::DiagnosticConsumer", ptr, ptr, ptr, i8, [7 x i8] }>
%"class.clang::DiagnosticConsumer" = type { ptr, i32, i32 }

; Function Attrs: mustprogress nounwind uwtable
define internal void @_ZN12_GLOBAL__N_125CaptureDiagnosticConsumer15BeginSourceFileERKN5clang11LangOptionsEPKNS1_12PreprocessorE(ptr noundef nonnull align 8 dereferenceable(41) %0, ptr noundef nonnull align 8 dereferenceable(841) %1, ptr noundef %2) unnamed_addr #0 align 2 {
  %4 = alloca ptr, align 8
  %5 = alloca ptr, align 8
  %6 = alloca ptr, align 8
  store ptr %0, ptr %4, align 8
  store ptr %1, ptr %5, align 8
  store ptr %2, ptr %6, align 8
  %7 = load ptr, ptr %4, align 8
  %8 = getelementptr inbounds nuw %"class.(anonymous namespace)::CaptureDiagnosticConsumer", ptr %7, i32 0, i32 4
  %9 = load i8, ptr %8, align 8
  %10 = trunc i8 %9 to i1
  br i1 %10, label %20, label %11

11:                                               ; preds = %3
  %12 = getelementptr inbounds nuw %"class.(anonymous namespace)::CaptureDiagnosticConsumer", ptr %7, i32 0, i32 2
  %13 = load ptr, ptr %12, align 8
  %14 = load ptr, ptr %5, align 8
  %15 = load ptr, ptr %6, align 8
  %16 = load ptr, ptr %13, align 8
  %17 = getelementptr inbounds ptr, ptr %16, i64 3
  %18 = load ptr, ptr %17, align 8
  call void %18(ptr noundef nonnull align 8 dereferenceable(16) %13, ptr noundef nonnull align 8 dereferenceable(841) %14, ptr noundef %15)
  %19 = getelementptr inbounds nuw %"class.(anonymous namespace)::CaptureDiagnosticConsumer", ptr %7, i32 0, i32 4
  store i8 1, ptr %19, align 8
  br label %20

20:                                               ; preds = %11, %3
  ret void
}