; Function Attrs: mustprogress nounwind uwtable
define internal void @_ZN12_GLOBAL__N_125CaptureDiagnosticConsumer15BeginSourceFileERKN5clang11LangOptionsEPKNS1_12PreprocessorE(ptr nocapture noundef nonnull align 8 dereferenceable(41) %0, ptr noundef nonnull align 8 dereferenceable(841) %1, ptr noundef %2) unnamed_addr #0 align 2 {
  %4 = getelementptr inbounds nuw i8, ptr %0, i64 40
  %5 = load i8, ptr %4, align 8
  %6 = trunc i8 %5 to i1
  br i1 %6, label %13, label %7

7:                                                ; preds = %3
  %8 = getelementptr inbounds nuw i8, ptr %0, i64 24
  %9 = load ptr, ptr %8, align 8
  %10 = load ptr, ptr %9, align 8
  %11 = getelementptr inbounds i8, ptr %10, i64 24
  %12 = load ptr, ptr %11, align 8
  tail call void %12(ptr noundef nonnull align 8 dereferenceable(16) %9, ptr noundef nonnull align 8 dereferenceable(841) %1, ptr noundef %2) #16
  store i8 1, ptr %4, align 8
  br label %13

13:                                               ; preds = %7, %3
  ret void
}